; Function Attrs: mustprogress nofree norecurse nosync nounwind willreturn memory(argmem: read) uwtable
define internal range(i32 -1, 3) i32 @pg_eucjp_dsplen(ptr noundef readonly captures(none) %0) #0 {
  %2 = load i8, ptr %0, align 1
  switch i8 %2, label %4 [
    i8 -114, label %9
    i8 -113, label %3
  ]

3:                                                ; preds = %1
  br label %9

4:                                                ; preds = %1
  %.not = icmp sgt i8 %2, -1
  br i1 %.not, label %5, label %9

5:                                                ; preds = %4
  %6 = icmp eq i8 %2, 0
  %7 = icmp samesign ult i8 %2, 32
  %8 = icmp eq i8 %2, 127
  %or.cond.i = or i1 %7, %8
  %spec.select.i = select i1 %or.cond.i, i32 -1, i32 1
  %.0.i = select i1 %6, i32 0, i32 %spec.select.i
  br label %9

9:                                                ; preds = %4, %1, %3, %5
  %.0 = phi i32 [ 2, %3 ], [ %.0.i, %5 ], [ 1, %1 ], [ 2, %4 ]
  ret i32 %.0
}